; Function Attrs: mustprogress nounwind uwtable
define hidden void @_ZN4cvc58internal6theory5arith2nl19MonomialBoundsCheck4initEv(ptr noundef nonnull align 8 dereferenceable(296) %0) local_unnamed_addr #4 align 2 personality ptr @__gxx_personality_v0 {
  %2 = getelementptr inbounds nuw i8, ptr %0, i64 152
  %3 = getelementptr inbounds nuw i8, ptr %0, i64 168
  %4 = load ptr, ptr %3, align 8, !tbaa !43
  invoke void @_ZNSt8_Rb_treeIN4cvc58internal12NodeTemplateILb1EEESt4pairIKS3_St3mapIS3_S6_IS3_NS1_4kind6Kind_tESt4lessIS3_ESaIS4_IS5_S8_EEESA_SaIS4_IS5_SD_EEEESt10_Select1stISH_ESA_SaISH_EE8_M_eraseEPSt13_Rb_tree_nodeISH_E(ptr noundef nonnull align 8 dereferenceable(48) %2, ptr noundef %4)
          to label %_ZNSt3mapIN4cvc58internal12NodeTemplateILb1EEES_IS3_S_IS3_NS1_4kind6Kind_tESt4lessIS3_ESaISt4pairIKS3_S5_EEES7_SaIS8_IS9_SC_EEES7_SaIS8_IS9_SF_EEE5clearEv.exit unwind label %5

5:                                                ; preds = %1
  %6 = landingpad { ptr, i32 }
          catch ptr null
  %7 = extractvalue { ptr, i32 } %6, 0
  tail call void @__clang_call_terminate(ptr %7) #21
  unreachable

_ZNSt3mapIN4cvc58internal12NodeTemplateILb1EEES_IS3_S_IS3_NS1_4kind6Kind_tESt4lessIS3_ESaISt4pairIKS3_S5_EEES7_SaIS8_IS9_SC_EEES7_SaIS8_IS9_SF_EEE5clearEv.exit: ; preds = %1
  %8 = getelementptr inbounds nuw i8, ptr %0, i64 160
  store ptr null, ptr %3, align 8, !tbaa !43
  %9 = getelementptr inbounds nuw i8, ptr %0, i64 176
  store ptr %8, ptr %9, align 8, !tbaa !44
  %10 = getelementptr inbounds nuw i8, ptr %0, i64 184
  store ptr %8, ptr %10, align 8, !tbaa !45
  %11 = getelementptr inbounds nuw i8, ptr %0, i64 192
  store i64 0, ptr %11, align 8, !tbaa !46
  %12 = getelementptr inbounds nuw i8, ptr %0, i64 200
  %13 = getelementptr inbounds nuw i8, ptr %0, i64 216
  %14 = load ptr, ptr %13, align 8, !tbaa !43
  invoke void @_ZNSt8_Rb_treeIN4cvc58internal12NodeTemplateILb1EEESt4pairIKS3_St3mapIS3_S6_IS3_S3_St4lessIS3_ESaIS4_IS5_S3_EEES8_SaIS4_IS5_SB_EEEESt10_Select1stISF_ES8_SaISF_EE8_M_eraseEPSt13_Rb_tree_nodeISF_E(ptr noundef nonnull align 8 dereferenceable(48) %12, ptr noundef %14)
          to label %_ZNSt3mapIN4cvc58internal12NodeTemplateILb1EEES_IS3_S_IS3_S3_St4lessIS3_ESaISt4pairIKS3_S3_EEES5_SaIS6_IS7_SA_EEES5_SaIS6_IS7_SD_EEE5clearEv.exit unwind label %15

15:                                               ; preds = %_ZNSt3mapIN4cvc58internal12NodeTemplateILb1EEES_IS3_S_IS3_NS1_4kind6Kind_tESt4lessIS3_ESaISt4pairIKS3_S5_EEES7_SaIS8_IS9_SC_EEES7_SaIS8_IS9_SF_EEE5clearEv.exit
  %16 = landingpad { ptr, i32 }
          catch ptr null
  %17 = extractvalue { ptr, i32 } %16, 0
  tail call void @__clang_call_terminate(ptr %17) #21
  unreachable

_ZNSt3mapIN4cvc58internal12NodeTemplateILb1EEES_IS3_S_IS3_S3_St4lessIS3_ESaISt4pairIKS3_S3_EEES5_SaIS6_IS7_SA_EEES5_SaIS6_IS7_SD_EEE5clearEv.exit: ; preds = %_ZNSt3mapIN4cvc58internal12NodeTemplateILb1EEES_IS3_S_IS3_NS1_4kind6Kind_tESt4lessIS3_ESaISt4pairIKS3_S5_EEES7_SaIS8_IS9_SC_EEES7_SaIS8_IS9_SF_EEE5clearEv.exit
  %18 = getelementptr inbounds nuw i8, ptr %0, i64 208
  store ptr null, ptr %13, align 8, !tbaa !43
  %19 = getelementptr inbounds nuw i8, ptr %0, i64 224
  store ptr %18, ptr %19, align 8, !tbaa !44
  %20 = getelementptr inbounds nuw i8, ptr %0, i64 232
  store ptr %18, ptr %20, align 8, !tbaa !45
  %21 = getelementptr inbounds nuw i8, ptr %0, i64 240
  store i64 0, ptr %21, align 8, !tbaa !46
  %22 = getelementptr inbounds nuw i8, ptr %0, i64 248
  %23 = getelementptr inbounds nuw i8, ptr %0, i64 264
  %24 = load ptr, ptr %23, align 8, !tbaa !43
  invoke void @_ZNSt8_Rb_treeIN4cvc58internal12NodeTemplateILb1EEESt4pairIKS3_St3mapIS3_S6_IS3_bSt4lessIS3_ESaIS4_IS5_bEEES8_SaIS4_IS5_SB_EEEESt10_Select1stISF_ES8_SaISF_EE8_M_eraseEPSt13_Rb_tree_nodeISF_E(ptr noundef nonnull align 8 dereferenceable(48) %22, ptr noundef %24)
          to label %_ZNSt3mapIN4cvc58internal12NodeTemplateILb1EEES_IS3_S_IS3_bSt4lessIS3_ESaISt4pairIKS3_bEEES5_SaIS6_IS7_SA_EEES5_SaIS6_IS7_SD_EEE5clearEv.exit unwind label %25

25:                                               ; preds = %_ZNSt3mapIN4cvc58internal12NodeTemplateILb1EEES_IS3_S_IS3_S3_St4lessIS3_ESaISt4pairIKS3_S3_EEES5_SaIS6_IS7_SA_EEES5_SaIS6_IS7_SD_EEE5clearEv.exit
  %26 = landingpad { ptr, i32 }
          catch ptr null
  %27 = extractvalue { ptr, i32 } %26, 0
  tail call void @__clang_call_terminate(ptr %27) #21
  unreachable

_ZNSt3mapIN4cvc58internal12NodeTemplateILb1EEES_IS3_S_IS3_bSt4lessIS3_ESaISt4pairIKS3_bEEES5_SaIS6_IS7_SA_EEES5_SaIS6_IS7_SD_EEE5clearEv.exit: ; preds = %_ZNSt3mapIN4cvc58internal12NodeTemplateILb1EEES_IS3_S_IS3_S3_St4lessIS3_ESaISt4pairIKS3_S3_EEES5_SaIS6_IS7_SA_EEES5_SaIS6_IS7_SD_EEE5clearEv.exit
  %28 = getelementptr inbounds nuw i8, ptr %0, i64 256
  store ptr null, ptr %23, align 8, !tbaa !43
  %29 = getelementptr inbounds nuw i8, ptr %0, i64 272
  store ptr %28, ptr %29, align 8, !tbaa !44
  %30 = getelementptr inbounds nuw i8, ptr %0, i64 280
  store ptr %28, ptr %30, align 8, !tbaa !45
  %31 = getelementptr inbounds nuw i8, ptr %0, i64 288
  store i64 0, ptr %31, align 8, !tbaa !46
  ret void
}